; Function Attrs: mustprogress nofree norecurse nosync nounwind willreturn memory(read, inaccessiblemem: none) uwtable
define hidden noundef zeroext i1 @_ZNK13ABIDescriptor15is_volatile_regE8Register(ptr nocapture noundef nonnull readonly align 8 dereferenceable(176) %0, i32 %1) local_unnamed_addr #1 align 2 {
  %3 = load i32, ptr %0, align 8
  %4 = icmp sgt i32 %3, 0
  br i1 %4, label %.lr.ph.i, label %_ZNK17GrowableArrayViewI8RegisterE8containsERKS0_.exit.thread

.lr.ph.i:                                         ; preds = %2
  %5 = getelementptr inbounds i8, ptr %0, i64 8
  %6 = load ptr, ptr %5, align 8
  %7 = zext nneg i32 %3 to i64
  %8 = load i32, ptr %6, align 4
  %.not.i12 = icmp eq i32 %8, %1
  br i1 %.not.i12, label %_ZNK17GrowableArrayViewI8RegisterE8containsERKS0_.exit9, label %.lr.ph

.lr.ph:                                           ; preds = %.lr.ph.i, %9
  %indvars.iv.i13 = phi i64 [ %indvars.iv.next.i, %9 ], [ 0, %.lr.ph.i ]
  %indvars.iv.next.i = add nuw nsw i64 %indvars.iv.i13, 1
  %exitcond.not.i = icmp eq i64 %indvars.iv.next.i, %7
  br i1 %exitcond.not.i, label %_ZNK17GrowableArrayViewI8RegisterE8containsERKS0_.exit, label %9, !llvm.loop !6

9:                                                ; preds = %.lr.ph
  %10 = getelementptr inbounds %class.Register, ptr %6, i64 %indvars.iv.next.i
  %11 = load i32, ptr %10, align 4
  %.not.i = icmp eq i32 %11, %1
  br i1 %.not.i, label %_ZNK17GrowableArrayViewI8RegisterE8containsERKS0_.exit, label %.lr.ph, !llvm.loop !6

_ZNK17GrowableArrayViewI8RegisterE8containsERKS0_.exit: ; preds = %9, %.lr.ph
  %12 = icmp ult i64 %indvars.iv.next.i, %7
  br i1 %12, label %_ZNK17GrowableArrayViewI8RegisterE8containsERKS0_.exit9, label %_ZNK17GrowableArrayViewI8RegisterE8containsERKS0_.exit.thread

_ZNK17GrowableArrayViewI8RegisterE8containsERKS0_.exit.thread: ; preds = %2, %_ZNK17GrowableArrayViewI8RegisterE8containsERKS0_.exit
  %13 = getelementptr inbounds i8, ptr %0, i64 104
  %14 = load i32, ptr %13, align 8
  %15 = icmp sgt i32 %14, 0
  br i1 %15, label %.lr.ph.i2, label %_ZNK17GrowableArrayViewI8RegisterE8containsERKS0_.exit9

.lr.ph.i2:                                        ; preds = %_ZNK17GrowableArrayViewI8RegisterE8containsERKS0_.exit.thread
  %16 = getelementptr inbounds i8, ptr %0, i64 112
  %17 = load ptr, ptr %16, align 8
  %18 = zext nneg i32 %14 to i64
  %19 = load i32, ptr %17, align 4
  %.not.i616 = icmp eq i32 %19, %1
  br i1 %.not.i616, label %_ZNK17GrowableArrayViewI8RegisterE8containsERKS0_.exit9, label %.lr.ph18

.lr.ph18:                                         ; preds = %.lr.ph.i2, %20
  %indvars.iv.i517 = phi i64 [ %indvars.iv.next.i7, %20 ], [ 0, %.lr.ph.i2 ]
  %indvars.iv.next.i7 = add nuw nsw i64 %indvars.iv.i517, 1
  %exitcond.not.i8 = icmp eq i64 %indvars.iv.next.i7, %18
  br i1 %exitcond.not.i8, label %_ZNK17GrowableArrayViewI8RegisterE8containsERKS0_.exit9.loopexit, label %20, !llvm.loop !6

20:                                               ; preds = %.lr.ph18
  %21 = getelementptr inbounds %class.Register, ptr %17, i64 %indvars.iv.next.i7
  %22 = load i32, ptr %21, align 4
  %.not.i6 = icmp eq i32 %22, %1
  br i1 %.not.i6, label %_ZNK17GrowableArrayViewI8RegisterE8containsERKS0_.exit9.loopexit, label %.lr.ph18, !llvm.loop !6

_ZNK17GrowableArrayViewI8RegisterE8containsERKS0_.exit9.loopexit: ; preds = %20, %.lr.ph18
  %23 = icmp ult i64 %indvars.iv.next.i7, %18
  br label %_ZNK17GrowableArrayViewI8RegisterE8containsERKS0_.exit9

_ZNK17GrowableArrayViewI8RegisterE8containsERKS0_.exit9: ; preds = %_ZNK17GrowableArrayViewI8RegisterE8containsERKS0_.exit9.loopexit, %.lr.ph.i, %.lr.ph.i2, %_ZNK17GrowableArrayViewI8RegisterE8containsERKS0_.exit.thread, %_ZNK17GrowableArrayViewI8RegisterE8containsERKS0_.exit
  %24 = phi i1 [ true, %_ZNK17GrowableArrayViewI8RegisterE8containsERKS0_.exit ], [ false, %_ZNK17GrowableArrayViewI8RegisterE8containsERKS0_.exit.thread ], [ true, %.lr.ph.i2 ], [ true, %.lr.ph.i ], [ %23, %_ZNK17GrowableArrayViewI8RegisterE8containsERKS0_.exit9.loopexit ]
  ret i1 %24
}